target datalayout = "e-m:e-p270:32:32-p271:32:32-p272:64:64-i64:64-i128:128-f80:128-n8:16:32:64-S128"
target triple = "x86_64-unknown-linux-gnu"

%"class.datalog::entry_storage" = type { i32, i32, i64, %class.svector, %class.hashtable, i64 }
%class.svector = type { %class.vector }
%class.vector = type { ptr }
%class.hashtable = type { %class.core_hashtable.base, [4 x i8] }
%class.core_hashtable.base = type <{ %"class.datalog::entry_storage::offset_hash_proc.base", [4 x i8], %"class.datalog::entry_storage::offset_eq_proc.base", [4 x i8], ptr, i32, i32, i32 }>
%"class.datalog::entry_storage::offset_hash_proc.base" = type <{ ptr, i32 }>
%"class.datalog::entry_storage::offset_eq_proc.base" = type <{ ptr, i32 }>

; Function Attrs: mustprogress nounwind uwtable
define linkonce_odr hidden noundef zeroext i1 @_ZNK7datalog13entry_storage11has_reserveEv(ptr noundef nonnull align 8 dereferenceable(88) %this) #5 comdat align 2 {
entry:
  %this.addr = alloca ptr, align 8
  store ptr %this, ptr %this.addr, align 8
  %this1 = load ptr, ptr %this.addr, align 8
  %m_reserve = getelementptr inbounds %"class.datalog::entry_storage", ptr %this1, i32 0, i32 5
  %0 = load i64, ptr %m_reserve, align 8
  %cmp = icmp ne i64 %0, 4294967295
  ret i1 %cmp
}

; Function Attrs: mustprogress uwtable
define linkonce_odr hidden void @_ZN14core_hashtableI18default_hash_entryImEN7datalog13entry_storage16offset_hash_procENS3_14offset_eq_procEE6insertERKm(ptr noundef nonnull align 8 dereferenceable(52) %this, ptr noundef nonnull align 8 dereferenceable(8) %e) #4 comdat align 2 {
entry:
  %this.addr = alloca ptr, align 8
  %e.addr = alloca ptr, align 8
  %tmp = alloca i64, align 8
  store ptr %this, ptr %this.addr, align 8
  store ptr %e, ptr %e.addr, align 8
  %this1 = load ptr, ptr %this.addr, align 8
  %0 = load ptr, ptr %e.addr, align 8
  %1 = load i64, ptr %0, align 8
  store i64 %1, ptr %tmp, align 8
  call void @_ZN14core_hashtableI18default_hash_entryImEN7datalog13entry_storage16offset_hash_procENS3_14offset_eq_procEE6insertEOm(ptr noundef nonnull align 8 dereferenceable(52) %this1, ptr noundef nonnull align 8 dereferenceable(8) %tmp)
  ret void
}

; Function Attrs: mustprogress nounwind uwtable
define linkonce_odr hidden noundef nonnull align 1 dereferenceable(1) ptr @_ZN6vectorIcLb0EmE3getEm(ptr noundef nonnull align 8 dereferenceable(8) %this, i64 noundef %idx) #5 comdat align 2 {
entry:
  %this.addr = alloca ptr, align 8
  %idx.addr = alloca i64, align 8
  store ptr %this, ptr %this.addr, align 8
  store i64 %idx, ptr %idx.addr, align 8
  %this1 = load ptr, ptr %this.addr, align 8
  %m_data = getelementptr inbounds %class.vector, ptr %this1, i32 0, i32 0
  %0 = load ptr, ptr %m_data, align 8
  %1 = load i64, ptr %idx.addr, align 8
  %arrayidx = getelementptr inbounds i8, ptr %0, i64 %1
  ret ptr %arrayidx
}

; Function Attrs: mustprogress nounwind uwtable
define linkonce_odr hidden noundef i64 @_ZNK7datalog13entry_storage17after_last_offsetEv(ptr noundef nonnull align 8 dereferenceable(88) %this) #5 comdat align 2 {
entry:
  %this.addr = alloca ptr, align 8
  store ptr %this, ptr %this.addr, align 8
  %this1 = load ptr, ptr %this.addr, align 8
  %m_reserve = getelementptr inbounds %"class.datalog::entry_storage", ptr %this1, i32 0, i32 5
  %0 = load i64, ptr %m_reserve, align 8
  %cmp = icmp eq i64 %0, 4294967295
  br i1 %cmp, label %cond.true, label %cond.false

cond.true:                                        ; preds = %entry
  %m_data_size = getelementptr inbounds %"class.datalog::entry_storage", ptr %this1, i32 0, i32 2
  %1 = load i64, ptr %m_data_size, align 8
  br label %cond.end

cond.false:                                       ; preds = %entry
  %m_reserve2 = getelementptr inbounds %"class.datalog::entry_storage", ptr %this1, i32 0, i32 5
  %2 = load i64, ptr %m_reserve2, align 8
  br label %cond.end

cond.end:                                         ; preds = %cond.false, %cond.true
  %cond = phi i64 [ %1, %cond.true ], [ %2, %cond.false ]
  ret i64 %cond
}

; Function Attrs: mustprogress uwtable
define hidden void @_ZN7datalog13entry_storage13remove_offsetEm(ptr noundef nonnull align 8 dereferenceable(88) %this, i64 noundef %ofs) #4 align 2 {
entry:
  %this.addr = alloca ptr, align 8
  %ofs.addr = alloca i64, align 8
  %last_ofs = alloca i64, align 8
  %base = alloca ptr, align 8
  store ptr %this, ptr %this.addr, align 8
  store i64 %ofs, ptr %ofs.addr, align 8
  %this1 = load ptr, ptr %this.addr, align 8
  %m_data_indexer = getelementptr inbounds %"class.datalog::entry_storage", ptr %this1, i32 0, i32 4
  call void @_ZN14core_hashtableI18default_hash_entryImEN7datalog13entry_storage16offset_hash_procENS3_14offset_eq_procEE6removeERKm(ptr noundef nonnull align 8 dereferenceable(52) %m_data_indexer, ptr noundef nonnull align 8 dereferenceable(8) %ofs.addr)
  %call = call noundef i64 @_ZNK7datalog13entry_storage17after_last_offsetEv(ptr noundef nonnull align 8 dereferenceable(88) %this1)
  %m_entry_size = getelementptr inbounds %"class.datalog::entry_storage", ptr %this1, i32 0, i32 0
  %0 = load i32, ptr %m_entry_size, align 8
  %conv = zext i32 %0 to i64
  %sub = sub i64 %call, %conv
  store i64 %sub, ptr %last_ofs, align 8
  %1 = load i64, ptr %ofs.addr, align 8
  %2 = load i64, ptr %last_ofs, align 8
  %cmp = icmp ne i64 %1, %2
  br i1 %cmp, label %if.then, label %if.end

if.then:                                          ; preds = %entry
  %m_data_indexer2 = getelementptr inbounds %"class.datalog::entry_storage", ptr %this1, i32 0, i32 4
  call void @_ZN14core_hashtableI18default_hash_entryImEN7datalog13entry_storage16offset_hash_procENS3_14offset_eq_procEE6removeERKm(ptr noundef nonnull align 8 dereferenceable(52) %m_data_indexer2, ptr noundef nonnull align 8 dereferenceable(8) %last_ofs)
  %m_data = getelementptr inbounds %"class.datalog::entry_storage", ptr %this1, i32 0, i32 3
  %call3 = call noundef nonnull align 1 dereferenceable(1) ptr @_ZN6vectorIcLb0EmE3getEm(ptr noundef nonnull align 8 dereferenceable(8) %m_data, i64 noundef 0)
  store ptr %call3, ptr %base, align 8
  %3 = load ptr, ptr %base, align 8
  %4 = load i64, ptr %ofs.addr, align 8
  %add.ptr = getelementptr inbounds i8, ptr %3, i64 %4
  %5 = load ptr, ptr %base, align 8
  %6 = load i64, ptr %last_ofs, align 8
  %add.ptr4 = getelementptr inbounds i8, ptr %5, i64 %6
  %m_entry_size5 = getelementptr inbounds %"class.datalog::entry_storage", ptr %this1, i32 0, i32 0
  %7 = load i32, ptr %m_entry_size5, align 8
  %conv6 = zext i32 %7 to i64
  call void @llvm.memcpy.p0.p0.i64(ptr align 1 %add.ptr, ptr align 1 %add.ptr4, i64 %conv6, i1 false)
  %m_data_indexer7 = getelementptr inbounds %"class.datalog::entry_storage", ptr %this1, i32 0, i32 4
  call void @_ZN14core_hashtableI18default_hash_entryImEN7datalog13entry_storage16offset_hash_procENS3_14offset_eq_procEE6insertERKm(ptr noundef nonnull align 8 dereferenceable(52) %m_data_indexer7, ptr noundef nonnull align 8 dereferenceable(8) %ofs.addr)
  br label %if.end

if.end:                                           ; preds = %if.then, %entry
  %call8 = call noundef zeroext i1 @_ZNK7datalog13entry_storage11has_reserveEv(ptr noundef nonnull align 8 dereferenceable(88) %this1)
  br i1 %call8, label %if.then9, label %if.end13

if.then9:                                         ; preds = %if.end
  %m_data_size = getelementptr inbounds %"class.datalog::entry_storage", ptr %this1, i32 0, i32 2
  %8 = load i64, ptr %m_data_size, align 8
  %m_entry_size10 = getelementptr inbounds %"class.datalog::entry_storage", ptr %this1, i32 0, i32 0
  %9 = load i32, ptr %m_entry_size10, align 8
  %conv11 = zext i32 %9 to i64
  %sub12 = sub i64 %8, %conv11
  call void @_ZN7datalog13entry_storage11resize_dataEm(ptr noundef nonnull align 8 dereferenceable(88) %this1, i64 noundef %sub12)
  br label %if.end13

if.end13:                                         ; preds = %if.then9, %if.end
  %10 = load i64, ptr %last_ofs, align 8
  %m_reserve = getelementptr inbounds %"class.datalog::entry_storage", ptr %this1, i32 0, i32 5
  store i64 %10, ptr %m_reserve, align 8
  ret void
}