; Function Attrs: mustprogress uwtable
define hidden void @_ZN7datalog13entry_storage13remove_offsetEm(ptr noundef nonnull align 8 dereferenceable(88) %this, i64 noundef %ofs) local_unnamed_addr #3 align 2 {
entry:
  %tmp.i = alloca i64, align 8
  %ofs.addr = alloca i64, align 8
  %last_ofs = alloca i64, align 8
  store i64 %ofs, ptr %ofs.addr, align 8
  %m_data_indexer = getelementptr inbounds i8, ptr %this, i64 24
  call void @_ZN14core_hashtableI18default_hash_entryImEN7datalog13entry_storage16offset_hash_procENS3_14offset_eq_procEE6removeERKm(ptr noundef nonnull align 8 dereferenceable(52) %m_data_indexer, ptr noundef nonnull align 8 dereferenceable(8) %ofs.addr)
  %m_reserve.i = getelementptr inbounds i8, ptr %this, i64 80
  %0 = load i64, ptr %m_reserve.i, align 8
  %cmp.i = icmp eq i64 %0, 4294967295
  %m_data_size.i = getelementptr inbounds i8, ptr %this, i64 8
  %1 = load i64, ptr %m_data_size.i, align 8
  %cond.i = select i1 %cmp.i, i64 %1, i64 %0
  %2 = load i32, ptr %this, align 8
  %conv = zext i32 %2 to i64
  %sub = sub i64 %cond.i, %conv
  store i64 %sub, ptr %last_ofs, align 8
  %3 = load i64, ptr %ofs.addr, align 8
  %cmp.not = icmp eq i64 %3, %sub
  br i1 %cmp.not, label %if.end, label %if.then

if.then:                                          ; preds = %entry
  call void @_ZN14core_hashtableI18default_hash_entryImEN7datalog13entry_storage16offset_hash_procENS3_14offset_eq_procEE6removeERKm(ptr noundef nonnull align 8 dereferenceable(52) %m_data_indexer, ptr noundef nonnull align 8 dereferenceable(8) %last_ofs)
  %m_data = getelementptr inbounds i8, ptr %this, i64 16
  %4 = load ptr, ptr %m_data, align 8
  %5 = load i64, ptr %ofs.addr, align 8
  %add.ptr = getelementptr inbounds i8, ptr %4, i64 %5
  %6 = load i64, ptr %last_ofs, align 8
  %add.ptr4 = getelementptr inbounds i8, ptr %4, i64 %6
  %7 = load i32, ptr %this, align 8
  %conv6 = zext i32 %7 to i64
  call void @llvm.memcpy.p0.p0.i64(ptr nonnull align 1 %add.ptr, ptr nonnull align 1 %add.ptr4, i64 %conv6, i1 false)
  call void @llvm.lifetime.start.p0(i64 8, ptr nonnull %tmp.i)
  %8 = load i64, ptr %ofs.addr, align 8
  store i64 %8, ptr %tmp.i, align 8
  call void @_ZN14core_hashtableI18default_hash_entryImEN7datalog13entry_storage16offset_hash_procENS3_14offset_eq_procEE6insertEOm(ptr noundef nonnull align 8 dereferenceable(52) %m_data_indexer, ptr noundef nonnull align 8 dereferenceable(8) %tmp.i)
  call void @llvm.lifetime.end.p0(i64 8, ptr nonnull %tmp.i)
  %.pre = load i64, ptr %m_reserve.i, align 8
  br label %if.end

if.end:                                           ; preds = %if.then, %entry
  %9 = phi i64 [ %.pre, %if.then ], [ %0, %entry ]
  %cmp.i3.not = icmp eq i64 %9, 4294967295
  br i1 %cmp.i3.not, label %if.end13, label %if.then9

if.then9:                                         ; preds = %if.end
  %10 = load i64, ptr %m_data_size.i, align 8
  %11 = load i32, ptr %this, align 8
  %conv11 = zext i32 %11 to i64
  %sub12 = sub i64 %10, %conv11
  call void @_ZN7datalog13entry_storage11resize_dataEm(ptr noundef nonnull align 8 dereferenceable(88) %this, i64 noundef %sub12)
  br label %if.end13

if.end13:                                         ; preds = %if.then9, %if.end
  %12 = load i64, ptr %last_ofs, align 8
  store i64 %12, ptr %m_reserve.i, align 8
  ret void
}